target datalayout = "e-m:e-p270:32:32-p271:32:32-p272:64:64-i64:64-i128:128-f80:128-n8:16:32:64-S128"
target triple = "x86_64-pc-linux-gnu"

%struct._generic_N_Vector = type { ptr, ptr, ptr }
%struct._N_VectorContent_SensWrapper = type { ptr, i32, i32 }

; Function Attrs: nounwind uwtable
define ptr @N_VNew_SensWrapper(i32 noundef %0, ptr noundef %1) #0 {
  %3 = alloca ptr, align 8
  %4 = alloca i32, align 4
  %5 = alloca ptr, align 8
  %6 = alloca ptr, align 8
  %7 = alloca i32, align 4
  %8 = alloca i32, align 4
  store i32 %0, ptr %4, align 4, !tbaa !3
  store ptr %1, ptr %5, align 8, !tbaa !10
  call void @llvm.lifetime.start.p0(i64 8, ptr %6) #5
  call void @llvm.lifetime.start.p0(i64 4, ptr %7) #5
  store ptr null, ptr %6, align 8, !tbaa !10
  %9 = load i32, ptr %4, align 4, !tbaa !3
  %10 = load ptr, ptr %5, align 8, !tbaa !10
  %11 = getelementptr inbounds nuw %struct._generic_N_Vector, ptr %10, i32 0, i32 2
  %12 = load ptr, ptr %11, align 8, !tbaa !63
  %13 = call ptr @N_VNewEmpty_SensWrapper(i32 noundef %9, ptr noundef %12)
  store ptr %13, ptr %6, align 8, !tbaa !10
  %14 = load ptr, ptr %6, align 8, !tbaa !10
  %15 = icmp eq ptr %14, null
  br i1 %15, label %16, label %17

16:                                               ; preds = %2
  store ptr null, ptr %3, align 8
  store i32 1, ptr %8, align 4
  br label %64

17:                                               ; preds = %2
  store i32 0, ptr %7, align 4, !tbaa !3
  br label %18

18:                                               ; preds = %50, %17
  %19 = load i32, ptr %7, align 4, !tbaa !3
  %20 = load ptr, ptr %6, align 8, !tbaa !10
  %21 = getelementptr inbounds nuw %struct._generic_N_Vector, ptr %20, i32 0, i32 0
  %22 = load ptr, ptr %21, align 8, !tbaa !45
  %23 = getelementptr inbounds nuw %struct._N_VectorContent_SensWrapper, ptr %22, i32 0, i32 1
  %24 = load i32, ptr %23, align 8, !tbaa !40
  %25 = icmp slt i32 %19, %24
  br i1 %25, label %26, label %53

26:                                               ; preds = %18
  %27 = load ptr, ptr %5, align 8, !tbaa !10
  %28 = call ptr @N_VClone(ptr noundef %27)
  %29 = load ptr, ptr %6, align 8, !tbaa !10
  %30 = getelementptr inbounds nuw %struct._generic_N_Vector, ptr %29, i32 0, i32 0
  %31 = load ptr, ptr %30, align 8, !tbaa !45
  %32 = getelementptr inbounds nuw %struct._N_VectorContent_SensWrapper, ptr %31, i32 0, i32 0
  %33 = load ptr, ptr %32, align 8, !tbaa !44
  %34 = load i32, ptr %7, align 4, !tbaa !3
  %35 = sext i32 %34 to i64
  %36 = getelementptr inbounds ptr, ptr %33, i64 %35
  store ptr %28, ptr %36, align 8, !tbaa !10
  %37 = load ptr, ptr %6, align 8, !tbaa !10
  %38 = getelementptr inbounds nuw %struct._generic_N_Vector, ptr %37, i32 0, i32 0
  %39 = load ptr, ptr %38, align 8, !tbaa !45
  %40 = getelementptr inbounds nuw %struct._N_VectorContent_SensWrapper, ptr %39, i32 0, i32 0
  %41 = load ptr, ptr %40, align 8, !tbaa !44
  %42 = load i32, ptr %7, align 4, !tbaa !3
  %43 = sext i32 %42 to i64
  %44 = getelementptr inbounds ptr, ptr %41, i64 %43
  %45 = load ptr, ptr %44, align 8, !tbaa !10
  %46 = icmp eq ptr %45, null
  br i1 %46, label %47, label %49

47:                                               ; preds = %26
  %48 = load ptr, ptr %6, align 8, !tbaa !10
  call void @N_VDestroy(ptr noundef %48)
  store ptr null, ptr %3, align 8
  store i32 1, ptr %8, align 4
  br label %64

49:                                               ; preds = %26
  br label %50

50:                                               ; preds = %49
  %51 = load i32, ptr %7, align 4, !tbaa !3
  %52 = add nsw i32 %51, 1
  store i32 %52, ptr %7, align 4, !tbaa !3
  br label %18

53:                                               ; preds = %18
  %54 = load ptr, ptr %6, align 8, !tbaa !10
  %55 = getelementptr inbounds nuw %struct._generic_N_Vector, ptr %54, i32 0, i32 0
  %56 = load ptr, ptr %55, align 8, !tbaa !45
  %57 = getelementptr inbounds nuw %struct._N_VectorContent_SensWrapper, ptr %56, i32 0, i32 2
  store i32 1, ptr %57, align 4, !tbaa !43
  %58 = load ptr, ptr %5, align 8, !tbaa !10
  %59 = getelementptr inbounds nuw %struct._generic_N_Vector, ptr %58, i32 0, i32 2
  %60 = load ptr, ptr %59, align 8, !tbaa !63
  %61 = load ptr, ptr %6, align 8, !tbaa !10
  %62 = getelementptr inbounds nuw %struct._generic_N_Vector, ptr %61, i32 0, i32 2
  store ptr %60, ptr %62, align 8, !tbaa !63
  %63 = load ptr, ptr %6, align 8, !tbaa !10
  store ptr %63, ptr %3, align 8
  store i32 1, ptr %8, align 4
  br label %64

64:                                               ; preds = %53, %47, %16
  call void @llvm.lifetime.end.p0(i64 4, ptr %7) #5
  call void @llvm.lifetime.end.p0(i64 8, ptr %6) #5
  %65 = load ptr, ptr %3, align 8
  ret ptr %65
}