; Function Attrs: nounwind uwtable
define ptr @N_VNew_SensWrapper(i32 noundef %0, ptr noundef %1) local_unnamed_addr #0 {
  %3 = getelementptr inbounds nuw i8, ptr %1, i64 16
  %4 = load ptr, ptr %3, align 8, !tbaa !56
  %5 = tail call ptr @N_VNewEmpty_SensWrapper(i32 noundef %0, ptr noundef %4)
  %6 = icmp eq ptr %5, null
  br i1 %6, label %25, label %.preheader

.preheader:                                       ; preds = %2
  %7 = load ptr, ptr %5, align 8, !tbaa !39
  %8 = getelementptr inbounds nuw i8, ptr %7, i64 8
  %9 = load i32, ptr %8, align 8, !tbaa !33
  %10 = icmp sgt i32 %9, 0
  br i1 %10, label %.lr.ph, label %._crit_edge

11:                                               ; preds = %.lr.ph
  %indvars.iv.next = add nuw nsw i64 %indvars.iv, 1
  %12 = getelementptr inbounds nuw i8, ptr %17, i64 8
  %13 = load i32, ptr %12, align 8, !tbaa !33
  %14 = sext i32 %13 to i64
  %15 = icmp slt i64 %indvars.iv.next, %14
  br i1 %15, label %.lr.ph, label %._crit_edge

.lr.ph:                                           ; preds = %.preheader, %11
  %indvars.iv = phi i64 [ %indvars.iv.next, %11 ], [ 0, %.preheader ]
  %16 = tail call ptr @N_VClone(ptr noundef %1) #7
  %17 = load ptr, ptr %5, align 8, !tbaa !39
  %18 = load ptr, ptr %17, align 8, !tbaa !38
  %19 = getelementptr inbounds nuw ptr, ptr %18, i64 %indvars.iv
  store ptr %16, ptr %19, align 8, !tbaa !40
  %20 = icmp eq ptr %16, null
  br i1 %20, label %21, label %11

21:                                               ; preds = %.lr.ph
  tail call void @N_VDestroy(ptr noundef nonnull %5) #7
  br label %25

._crit_edge:                                      ; preds = %11, %.preheader
  %.lcssa = phi ptr [ %7, %.preheader ], [ %17, %11 ]
  %22 = getelementptr inbounds nuw i8, ptr %.lcssa, i64 12
  store i32 1, ptr %22, align 4, !tbaa !37
  %23 = load ptr, ptr %3, align 8, !tbaa !56
  %24 = getelementptr inbounds nuw i8, ptr %5, i64 16
  store ptr %23, ptr %24, align 8, !tbaa !56
  br label %25

25:                                               ; preds = %2, %._crit_edge, %21
  %.016 = phi ptr [ null, %21 ], [ %5, %._crit_edge ], [ null, %2 ]
  ret ptr %.016
}